; Function Attrs: nounwind uwtable
define dso_local void @strbuf_repo_worktree_path(ptr noundef %0, ptr noundef readonly captures(none) %1, ptr noundef %2, ...) local_unnamed_addr #3 {
  %4 = alloca [1 x %struct.__va_list_tag], align 16
  call void @llvm.lifetime.start.p0(i64 24, ptr nonnull %4) #29
  %5 = getelementptr inbounds nuw i8, ptr %1, i64 240
  %6 = load ptr, ptr %5, align 8, !tbaa !69
  %.not = icmp eq ptr %6, null
  br i1 %.not, label %8, label %7

7:                                                ; preds = %3
  call void @llvm.va_start.p0(ptr nonnull %4)
  %.val = load ptr, ptr %5, align 8, !tbaa !69
  call fastcc void @do_worktree_path(ptr %.val, ptr noundef %0, ptr noundef %2, ptr noundef %4)
  call void @llvm.va_end.p0(ptr nonnull %4)
  br label %8

8:                                                ; preds = %3, %7
  call void @llvm.lifetime.end.p0(i64 24, ptr nonnull %4) #29
  ret void
}